; Function Attrs: mustprogress nofree norecurse nosync nounwind memory(argmem: readwrite) uwtable
define noundef zeroext i1 @_ZNK6icu_7717double_conversion6Bignum11ToHexStringEPci(ptr noundef nonnull readonly align 4 captures(none) dereferenceable(516) %0, ptr noundef writeonly captures(none) %1, i32 noundef %2) local_unnamed_addr #4 align 2 {
  %4 = load i16, ptr %0, align 4, !tbaa !3
  %5 = icmp eq i16 %4, 0
  br i1 %5, label %6, label %10

6:                                                ; preds = %3
  %7 = icmp slt i32 %2, 2
  br i1 %7, label %.loopexit, label %8

8:                                                ; preds = %6
  store i8 48, ptr %1, align 1, !tbaa !14
  %9 = getelementptr inbounds nuw i8, ptr %1, i64 1
  store i8 0, ptr %9, align 1, !tbaa !14
  br label %.loopexit

10:                                               ; preds = %3
  %11 = sext i16 %4 to i32
  %12 = getelementptr inbounds nuw i8, ptr %0, i64 2
  %13 = load i16, ptr %12, align 2, !tbaa !8
  %14 = sext i16 %13 to i32
  %15 = add nsw i32 %14, %11
  %16 = mul nsw i32 %15, 7
  %17 = add nsw i32 %16, -7
  %18 = add nsw i32 %11, -1
  %19 = getelementptr inbounds nuw i8, ptr %0, i64 4
  %20 = sext i32 %18 to i64
  %21 = getelementptr inbounds [128 x i32], ptr %19, i64 0, i64 %20
  %22 = load i32, ptr %21, align 4, !tbaa !9
  %.not5.i = icmp eq i32 %22, 0
  br i1 %.not5.i, label %_ZN6icu_7717double_conversionL14SizeInHexCharsIjEEiT_.exit, label %.lr.ph.i

.lr.ph.i:                                         ; preds = %10, %.lr.ph.i
  %.07.i = phi i32 [ %24, %.lr.ph.i ], [ 0, %10 ]
  %.046.i = phi i32 [ %23, %.lr.ph.i ], [ %22, %10 ]
  %23 = lshr i32 %.046.i, 4
  %24 = add nuw nsw i32 %.07.i, 1
  %.not.i = icmp ult i32 %.046.i, 16
  br i1 %.not.i, label %_ZN6icu_7717double_conversionL14SizeInHexCharsIjEEiT_.exit, label %.lr.ph.i, !llvm.loop !46

_ZN6icu_7717double_conversionL14SizeInHexCharsIjEEiT_.exit: ; preds = %.lr.ph.i, %10
  %.0.lcssa.i = phi i32 [ 0, %10 ], [ %24, %.lr.ph.i ]
  %25 = add nsw i32 %17, %.0.lcssa.i
  %.not = icmp slt i32 %25, %2
  br i1 %.not, label %26, label %.loopexit

26:                                               ; preds = %_ZN6icu_7717double_conversionL14SizeInHexCharsIjEEiT_.exit
  %27 = add nsw i32 %25, -1
  %28 = sext i32 %25 to i64
  %29 = getelementptr inbounds i8, ptr %1, i64 %28
  store i8 0, ptr %29, align 1, !tbaa !14
  %30 = load i16, ptr %12, align 2, !tbaa !8
  %31 = icmp sgt i16 %30, 0
  br i1 %31, label %.preheader40.preheader, label %.preheader

.preheader40.preheader:                           ; preds = %26
  %scevgep = getelementptr i8, ptr %1, i64 -6
  %32 = sext i32 %27 to i64
  br label %.preheader40

.preheader40:                                     ; preds = %.preheader40.preheader, %.preheader40
  %indvars.iv = phi i64 [ %32, %.preheader40.preheader ], [ %indvars.iv.next, %.preheader40 ]
  %.03345 = phi i32 [ 0, %.preheader40.preheader ], [ %33, %.preheader40 ]
  %scevgep62 = getelementptr i8, ptr %scevgep, i64 %indvars.iv
  tail call void @llvm.memset.p0.i64(ptr noundef nonnull align 1 dereferenceable(7) %scevgep62, i8 48, i64 7, i1 false), !tbaa !14
  %indvars.iv.next = add nsw i64 %indvars.iv, -7
  %33 = add nuw nsw i32 %.03345, 1
  %34 = load i16, ptr %12, align 2, !tbaa !8
  %35 = sext i16 %34 to i32
  %36 = icmp slt i32 %33, %35
  br i1 %36, label %.preheader40, label %.preheader.loopexit, !llvm.loop !47

.preheader.loopexit:                              ; preds = %.preheader40
  %indvars = trunc i64 %indvars.iv.next to i32
  br label %.preheader

.preheader:                                       ; preds = %.preheader.loopexit, %26
  %.034.lcssa = phi i32 [ %27, %26 ], [ %indvars, %.preheader.loopexit ]
  %37 = load i16, ptr %0, align 4, !tbaa !3
  %38 = icmp sgt i16 %37, 1
  br i1 %38, label %.lr.ph, label %.preheader.._crit_edge_crit_edge

.preheader.._crit_edge_crit_edge:                 ; preds = %.preheader
  %39 = sext i16 %37 to i64
  %.pre = add nsw i64 %39, -1
  br label %._crit_edge

._crit_edge:                                      ; preds = %46, %.preheader.._crit_edge_crit_edge
  %.pre-phi = phi i64 [ %.pre, %.preheader.._crit_edge_crit_edge ], [ %50, %46 ]
  %.2.lcssa = phi i32 [ %.034.lcssa, %.preheader.._crit_edge_crit_edge ], [ %47, %46 ]
  %40 = getelementptr inbounds [128 x i32], ptr %19, i64 0, i64 %.pre-phi
  %41 = load i32, ptr %40, align 4, !tbaa !9
  %.not3853 = icmp eq i32 %41, 0
  br i1 %.not3853, label %.loopexit, label %.lr.ph57.preheader

.lr.ph57.preheader:                               ; preds = %._crit_edge
  %42 = sext i32 %.2.lcssa to i64
  br label %.lr.ph57

.lr.ph:                                           ; preds = %.preheader, %46
  %indvars.iv69 = phi i64 [ %indvars.iv.next70, %46 ], [ 0, %.preheader ]
  %.249 = phi i32 [ %47, %46 ], [ %.034.lcssa, %.preheader ]
  %43 = getelementptr inbounds nuw [128 x i32], ptr %19, i64 0, i64 %indvars.iv69
  %44 = load i32, ptr %43, align 4, !tbaa !9
  %45 = sext i32 %.249 to i64
  br label %52

46:                                               ; preds = %52
  %47 = trunc nsw i64 %indvars.iv.next66 to i32
  %indvars.iv.next70 = add nuw nsw i64 %indvars.iv69, 1
  %48 = load i16, ptr %0, align 4, !tbaa !3
  %49 = sext i16 %48 to i64
  %50 = add nsw i64 %49, -1
  %51 = icmp slt i64 %indvars.iv.next70, %50
  br i1 %51, label %.lr.ph, label %._crit_edge, !llvm.loop !48

52:                                               ; preds = %.lr.ph, %52
  %indvars.iv65 = phi i64 [ %45, %.lr.ph ], [ %indvars.iv.next66, %52 ]
  %.02948 = phi i32 [ 0, %.lr.ph ], [ %60, %52 ]
  %.03047 = phi i32 [ %44, %.lr.ph ], [ %59, %52 ]
  %53 = and i32 %.03047, 15
  %54 = icmp samesign ult i32 %53, 10
  %55 = trunc nuw nsw i32 %53 to i8
  %56 = or disjoint i8 %55, 48
  %57 = add nuw nsw i8 %55, 55
  %.0.i = select i1 %54, i8 %56, i8 %57
  %indvars.iv.next66 = add nsw i64 %indvars.iv65, -1
  %58 = getelementptr inbounds i8, ptr %1, i64 %indvars.iv65
  store i8 %.0.i, ptr %58, align 1, !tbaa !14
  %59 = lshr i32 %.03047, 4
  %60 = add nuw nsw i32 %.02948, 1
  %exitcond.not = icmp eq i32 %60, 7
  br i1 %exitcond.not, label %46, label %52, !llvm.loop !49

.lr.ph57:                                         ; preds = %.lr.ph57.preheader, %.lr.ph57
  %indvars.iv73 = phi i64 [ %42, %.lr.ph57.preheader ], [ %indvars.iv.next74, %.lr.ph57 ]
  %.055 = phi i32 [ %41, %.lr.ph57.preheader ], [ %67, %.lr.ph57 ]
  %61 = and i32 %.055, 15
  %62 = icmp samesign ult i32 %61, 10
  %63 = trunc nuw nsw i32 %61 to i8
  %64 = or disjoint i8 %63, 48
  %65 = add nuw nsw i8 %63, 55
  %.0.i39 = select i1 %62, i8 %64, i8 %65
  %indvars.iv.next74 = add nsw i64 %indvars.iv73, -1
  %66 = getelementptr inbounds i8, ptr %1, i64 %indvars.iv73
  store i8 %.0.i39, ptr %66, align 1, !tbaa !14
  %67 = lshr i32 %.055, 4
  %.not38 = icmp ult i32 %.055, 16
  br i1 %.not38, label %.loopexit, label %.lr.ph57, !llvm.loop !50

.loopexit:                                        ; preds = %.lr.ph57, %._crit_edge, %_ZN6icu_7717double_conversionL14SizeInHexCharsIjEEiT_.exit, %6, %8
  %.035 = phi i1 [ true, %8 ], [ false, %6 ], [ false, %_ZN6icu_7717double_conversionL14SizeInHexCharsIjEEiT_.exit ], [ true, %._crit_edge ], [ true, %.lr.ph57 ]
  ret i1 %.035
}